; Function Attrs: noinline nounwind uwtable
define hidden ptr @mi_heap_try_new(ptr noundef %0, i64 noundef %1, i1 noundef zeroext %2) local_unnamed_addr #7 {
  %4 = icmp ult i64 %1, 1025
  %5 = add nuw nsw i64 %1, 7
  %6 = lshr i64 %5, 3
  %7 = getelementptr inbounds nuw i8, ptr %0, i64 232
  %8 = getelementptr inbounds nuw [129 x ptr], ptr %7, i64 0, i64 %6
  %9 = tail call ptr @_ZSt15get_new_handlerv() #20
  %.not.us11 = icmp eq ptr %9, null
  br i1 %4, label %.split.us, label %.split, !prof !8

.split.us:                                        ; preds = %3
  br i1 %.not.us11, label %.split8.us, label %.lr.ph

10:                                               ; preds = %mi_heap_malloc.exit.us
  %11 = tail call ptr @_ZSt15get_new_handlerv() #20
  %.not.us = icmp eq ptr %11, null
  br i1 %.not.us, label %.split8.us, label %.lr.ph, !llvm.loop !39

.lr.ph:                                           ; preds = %.split.us, %10
  %12 = phi ptr [ %11, %10 ], [ %9, %.split.us ]
  tail call void %12() #19
  %13 = load ptr, ptr %8, align 8, !tbaa !9
  %14 = getelementptr inbounds nuw i8, ptr %13, i64 8
  %15 = load ptr, ptr %14, align 8, !tbaa !11
  %16 = icmp eq ptr %15, null
  br i1 %16, label %mi_heap_malloc.exit.us, label %mi_heap_malloc.exit.us.thread, !prof !17

mi_heap_malloc.exit.us.thread:                    ; preds = %.lr.ph
  %17 = getelementptr inbounds nuw i8, ptr %13, i64 8
  %.val.i.i.i.i.i.us = load i64, ptr %15, align 8, !tbaa !18
  %18 = inttoptr i64 %.val.i.i.i.i.i.us to ptr
  store ptr %18, ptr %17, align 8, !tbaa !11
  %19 = getelementptr inbounds nuw i8, ptr %13, i64 24
  %20 = load i16, ptr %19, align 8, !tbaa !20
  %21 = add i16 %20, 1
  store i16 %21, ptr %19, align 8, !tbaa !20
  br label %.critedge

mi_heap_malloc.exit.us:                           ; preds = %.lr.ph
  %22 = tail call noalias ptr @_mi_malloc_generic(ptr noundef nonnull %0, i64 noundef %1, i1 noundef zeroext false, i64 noundef 0) #19
  %23 = icmp eq ptr %22, null
  br i1 %23, label %10, label %.critedge, !llvm.loop !39

.split:                                           ; preds = %3
  br i1 %.not.us11, label %.split8.us, label %mi_heap_malloc.exit

24:                                               ; preds = %mi_heap_malloc.exit
  %25 = tail call ptr @_ZSt15get_new_handlerv() #20
  %.not = icmp eq ptr %25, null
  br i1 %.not, label %.split8.us, label %mi_heap_malloc.exit, !llvm.loop !39

.split8.us:                                       ; preds = %24, %10, %.split, %.split.us
  tail call void (i32, ptr, ...) @_mi_error_message(i32 noundef 12, ptr noundef nonnull @.str.4) #19
  br i1 %2, label %.critedge, label %26

26:                                               ; preds = %.split8.us
  tail call void @abort() #21
  unreachable

mi_heap_malloc.exit:                              ; preds = %.split, %24
  %27 = phi ptr [ %25, %24 ], [ %9, %.split ]
  tail call void %27() #19
  %28 = tail call noalias ptr @_mi_malloc_generic(ptr noundef %0, i64 noundef %1, i1 noundef zeroext false, i64 noundef 0) #19
  %29 = icmp eq ptr %28, null
  br i1 %29, label %24, label %.critedge, !llvm.loop !39

.critedge:                                        ; preds = %mi_heap_malloc.exit, %mi_heap_malloc.exit.us, %mi_heap_malloc.exit.us.thread, %.split8.us
  %.05 = phi ptr [ null, %.split8.us ], [ %15, %mi_heap_malloc.exit.us.thread ], [ %22, %mi_heap_malloc.exit.us ], [ %28, %mi_heap_malloc.exit ]
  ret ptr %.05
}